target datalayout = "e-m:e-p270:32:32-p271:32:32-p272:64:64-i64:64-i128:128-f80:128-n8:16:32:64-S128"
target triple = "x86_64-pc-linux-gnu"

%struct.expert_field = type { i32, i32 }
%struct._packet_info = type { ptr, ptr, i32, i32, %struct.nstime_t, %struct.nstime_t, %struct.nstime_t, i8, ptr, ptr, ptr, ptr, %struct._address, %struct._address, %struct._address, %struct._address, %struct._address, %struct._address, i32, ptr, i8, [3 x i8], %struct.anon, i32, i32, i32, i32, ptr, i8, ptr, ptr, i16, i16, i32, i32, i16, i32, i32, ptr, ptr, ptr, i8, i8, i16, i16, i16, i32, i16, i16, ptr, ptr, ptr, ptr, ptr, i32, i32 }
%struct.nstime_t = type { i64, i32 }
%struct._address = type { i32, i32, ptr, ptr }
%struct.anon = type { i8, [3 x i8] }

@hf_uftp_destlist = internal global i32 0, align 4
@hf_uftp_dest = internal global i32 0, align 4
@hf_uftp_fileinfo = internal global i32 0, align 4
@hf_uftp_fileinfo_func = internal global i32 0, align 4
@hf_uftp_fileinfo_hlen = internal global i32 0, align 4
@hf_uftp_fileinfo_file_id = internal global i32 0, align 4
@hf_uftp_fileinfo_ftype = internal global i32 0, align 4
@hf_uftp_fileinfo_reserved = internal global i32 0, align 4
@hf_uftp_fileinfo_ftstamp_hi = internal global i32 0, align 4
@hf_uftp_fileinfo_namelen = internal global i32 0, align 4
@hf_uftp_fileinfo_linklen = internal global i32 0, align 4
@hf_uftp_fileinfo_fsize = internal global i32 0, align 4
@hf_uftp_fileinfo_ftstamp = internal global i32 0, align 4
@hf_uftp_fileinfo_tstamp = internal global i32 0, align 4
@hf_uftp_fileinfo_name = internal global i32 0, align 4
@hf_uftp_fileinfo_link = internal global i32 0, align 4
@ett_uftp_fileinfo = internal global i32 0, align 4
@ett_uftp_destlist = internal global i32 0, align 4
@ei_uftp_length_invalid = internal global %struct.expert_field zeroinitializer, align 4
@.str.416 = private unnamed_addr constant [19 x i8] c"Invalid length: %d\00", align 1
@.str.418 = private unnamed_addr constant [14 x i8] c"%d bytes (%d)\00", align 1
@.str.424 = private unnamed_addr constant [64 x i8] c"Invalid length, len = %d, hlen = %d, namelen = %d, linklen = %d\00", align 1
@.str.425 = private unnamed_addr constant [6 x i8] c":%04X\00", align 1

; Function Attrs: nounwind null_pointer_is_valid sspstrong uwtable
define internal { i64, i32 } @usec_to_nstime(i64 noundef %0) #3 {
  %2 = alloca %struct.nstime_t, align 8
  %3 = alloca i64, align 8
  store i64 %0, ptr %3, align 8
  %4 = load i64, ptr %3, align 8
  %5 = udiv i64 %4, 1000000
  %6 = getelementptr inbounds nuw %struct.nstime_t, ptr %2, i32 0, i32 0
  store i64 %5, ptr %6, align 8
  %7 = load i64, ptr %3, align 8
  %8 = urem i64 %7, 1000000
  %9 = mul i64 %8, 1000
  %10 = trunc i64 %9 to i32
  %11 = getelementptr inbounds nuw %struct.nstime_t, ptr %2, i32 0, i32 1
  store i32 %10, ptr %11, align 8
  %12 = load { i64, i32 }, ptr %2, align 8
  ret { i64, i32 } %12
}

; Function Attrs: null_pointer_is_valid sspstrong uwtable
define internal void @dissect_uftp_fileinfo(ptr noundef %0, ptr noundef %1, ptr noundef %2) #0 {
  %4 = alloca ptr, align 8
  %5 = alloca ptr, align 8
  %6 = alloca ptr, align 8
  %7 = alloca ptr, align 8
  %8 = alloca ptr, align 8
  %9 = alloca ptr, align 8
  %10 = alloca ptr, align 8
  %11 = alloca i32, align 4
  %12 = alloca i32, align 4
  %13 = alloca i16, align 2
  %14 = alloca i16, align 2
  %15 = alloca i16, align 2
  %16 = alloca i16, align 2
  %17 = alloca i16, align 2
  %18 = alloca %struct.nstime_t, align 8
  %19 = alloca %struct.nstime_t, align 8
  %20 = alloca i32, align 4
  %21 = alloca %struct.nstime_t, align 8
  store ptr %0, ptr %4, align 8
  store ptr %1, ptr %5, align 8
  store ptr %2, ptr %6, align 8
  call void @llvm.lifetime.start.p0(i64 8, ptr %7) #6
  store ptr null, ptr %7, align 8
  call void @llvm.lifetime.start.p0(i64 8, ptr %8) #6
  store ptr null, ptr %8, align 8
  call void @llvm.lifetime.start.p0(i64 8, ptr %9) #6
  store ptr null, ptr %9, align 8
  call void @llvm.lifetime.start.p0(i64 8, ptr %10) #6
  store ptr null, ptr %10, align 8
  call void @llvm.lifetime.start.p0(i64 4, ptr %11) #6
  store i32 0, ptr %11, align 4
  call void @llvm.lifetime.start.p0(i64 4, ptr %12) #6
  call void @llvm.lifetime.start.p0(i64 2, ptr %13) #6
  call void @llvm.lifetime.start.p0(i64 2, ptr %14) #6
  call void @llvm.lifetime.start.p0(i64 2, ptr %15) #6
  call void @llvm.lifetime.start.p0(i64 2, ptr %16) #6
  call void @llvm.lifetime.start.p0(i64 2, ptr %17) #6
  call void @llvm.lifetime.start.p0(i64 16, ptr %18) #6
  call void @llvm.lifetime.start.p0(i64 16, ptr %19) #6
  %22 = load ptr, ptr %4, align 8
  %23 = call i32 @tvb_reported_length(ptr noundef %22)
  %24 = icmp ult i32 %23, 28
  br i1 %24, label %25, label %33

25:                                               ; preds = %3
  %26 = load ptr, ptr %6, align 8
  %27 = load ptr, ptr %5, align 8
  %28 = load ptr, ptr %4, align 8
  %29 = load i32, ptr %11, align 4
  %30 = load ptr, ptr %4, align 8
  %31 = call i32 @tvb_reported_length(ptr noundef %30)
  %32 = call ptr (ptr, ptr, ptr, ptr, i32, i32, ptr, ...) @proto_tree_add_expert_format(ptr noundef %26, ptr noundef %27, ptr noundef @ei_uftp_length_invalid, ptr noundef %28, i32 noundef %29, i32 noundef -1, ptr noundef @.str.416, i32 noundef %31)
  store i32 1, ptr %20, align 4
  br label %257

33:                                               ; preds = %3
  %34 = load ptr, ptr %4, align 8
  %35 = call zeroext i8 @tvb_get_uint8(ptr noundef %34, i32 noundef 1)
  %36 = zext i8 %35 to i32
  %37 = mul i32 %36, 4
  store i32 %37, ptr %12, align 4
  %38 = load ptr, ptr %4, align 8
  %39 = call zeroext i8 @tvb_get_uint8(ptr noundef %38, i32 noundef 8)
  %40 = zext i8 %39 to i32
  %41 = mul i32 %40, 4
  %42 = trunc i32 %41 to i16
  store i16 %42, ptr %16, align 2
  %43 = load ptr, ptr %4, align 8
  %44 = call zeroext i8 @tvb_get_uint8(ptr noundef %43, i32 noundef 9)
  %45 = zext i8 %44 to i32
  %46 = mul i32 %45, 4
  %47 = trunc i32 %46 to i16
  store i16 %47, ptr %17, align 2
  %48 = load ptr, ptr %4, align 8
  %49 = call i32 @tvb_reported_length(ptr noundef %48)
  %50 = load i32, ptr %12, align 4
  %51 = icmp slt i32 %49, %50
  br i1 %51, label %61, label %52

52:                                               ; preds = %33
  %53 = load i32, ptr %12, align 4
  %54 = load i16, ptr %16, align 2
  %55 = zext i16 %54 to i32
  %56 = add i32 28, %55
  %57 = load i16, ptr %17, align 2
  %58 = zext i16 %57 to i32
  %59 = add i32 %56, %58
  %60 = icmp slt i32 %53, %59
  br i1 %60, label %61, label %74

61:                                               ; preds = %52, %33
  %62 = load ptr, ptr %6, align 8
  %63 = load ptr, ptr %5, align 8
  %64 = load ptr, ptr %4, align 8
  %65 = load i32, ptr %11, align 4
  %66 = load ptr, ptr %4, align 8
  %67 = call i32 @tvb_reported_length(ptr noundef %66)
  %68 = load i32, ptr %12, align 4
  %69 = load i16, ptr %16, align 2
  %70 = zext i16 %69 to i32
  %71 = load i16, ptr %17, align 2
  %72 = zext i16 %71 to i32
  %73 = call ptr (ptr, ptr, ptr, ptr, i32, i32, ptr, ...) @proto_tree_add_expert_format(ptr noundef %62, ptr noundef %63, ptr noundef @ei_uftp_length_invalid, ptr noundef %64, i32 noundef %65, i32 noundef -1, ptr noundef @.str.424, i32 noundef %67, i32 noundef %68, i32 noundef %70, i32 noundef %72)
  store i32 1, ptr %20, align 4
  br label %257

74:                                               ; preds = %52
  %75 = load ptr, ptr %4, align 8
  %76 = call zeroext i16 @tvb_get_ntohs(ptr noundef %75, i32 noundef 2)
  store i16 %76, ptr %13, align 2
  %77 = load ptr, ptr %5, align 8
  %78 = getelementptr inbounds nuw %struct._packet_info, ptr %77, i32 0, i32 1
  %79 = load ptr, ptr %78, align 8
  %80 = load i16, ptr %13, align 2
  %81 = zext i16 %80 to i32
  call void (ptr, i32, ptr, ...) @col_append_fstr(ptr noundef %79, i32 noundef 25, ptr noundef @.str.425, i32 noundef %81)
  %82 = load ptr, ptr %6, align 8
  %83 = load i32, ptr @hf_uftp_fileinfo, align 4
  %84 = load ptr, ptr %4, align 8
  %85 = load i32, ptr %11, align 4
  %86 = call ptr @proto_tree_add_item(ptr noundef %82, i32 noundef %83, ptr noundef %84, i32 noundef %85, i32 noundef -1, i32 noundef 0)
  store ptr %86, ptr %7, align 8
  %87 = load ptr, ptr %7, align 8
  %88 = load i32, ptr @ett_uftp_fileinfo, align 4
  %89 = call ptr @proto_item_add_subtree(ptr noundef %87, i32 noundef %88)
  store ptr %89, ptr %9, align 8
  %90 = load ptr, ptr %9, align 8
  %91 = load i32, ptr @hf_uftp_fileinfo_func, align 4
  %92 = load ptr, ptr %4, align 8
  %93 = load i32, ptr %11, align 4
  %94 = call ptr @proto_tree_add_item(ptr noundef %90, i32 noundef %91, ptr noundef %92, i32 noundef %93, i32 noundef 1, i32 noundef 0)
  %95 = load i32, ptr %11, align 4
  %96 = add i32 %95, 1
  store i32 %96, ptr %11, align 4
  %97 = load ptr, ptr %9, align 8
  %98 = load i32, ptr @hf_uftp_fileinfo_hlen, align 4
  %99 = load ptr, ptr %4, align 8
  %100 = load i32, ptr %11, align 4
  %101 = load i32, ptr %12, align 4
  %102 = load i32, ptr %12, align 4
  %103 = load i32, ptr %12, align 4
  %104 = sdiv i32 %103, 4
  %105 = call ptr (ptr, i32, ptr, i32, i32, i32, ptr, ...) @proto_tree_add_uint_format_value(ptr noundef %97, i32 noundef %98, ptr noundef %99, i32 noundef %100, i32 noundef 1, i32 noundef %101, ptr noundef @.str.418, i32 noundef %102, i32 noundef %104)
  %106 = load i32, ptr %11, align 4
  %107 = add i32 %106, 1
  store i32 %107, ptr %11, align 4
  %108 = load ptr, ptr %9, align 8
  %109 = load i32, ptr @hf_uftp_fileinfo_file_id, align 4
  %110 = load ptr, ptr %4, align 8
  %111 = load i32, ptr %11, align 4
  %112 = call ptr @proto_tree_add_item(ptr noundef %108, i32 noundef %109, ptr noundef %110, i32 noundef %111, i32 noundef 2, i32 noundef 0)
  %113 = load i32, ptr %11, align 4
  %114 = add i32 %113, 2
  store i32 %114, ptr %11, align 4
  %115 = load ptr, ptr %9, align 8
  %116 = load i32, ptr @hf_uftp_fileinfo_ftype, align 4
  %117 = load ptr, ptr %4, align 8
  %118 = load i32, ptr %11, align 4
  %119 = call ptr @proto_tree_add_item(ptr noundef %115, i32 noundef %116, ptr noundef %117, i32 noundef %118, i32 noundef 1, i32 noundef 0)
  %120 = load i32, ptr %11, align 4
  %121 = add i32 %120, 1
  store i32 %121, ptr %11, align 4
  %122 = load ptr, ptr %9, align 8
  %123 = load i32, ptr @hf_uftp_fileinfo_reserved, align 4
  %124 = load ptr, ptr %4, align 8
  %125 = load i32, ptr %11, align 4
  %126 = call ptr @proto_tree_add_item(ptr noundef %122, i32 noundef %123, ptr noundef %124, i32 noundef %125, i32 noundef 1, i32 noundef 0)
  %127 = load i32, ptr %11, align 4
  %128 = add i32 %127, 1
  store i32 %128, ptr %11, align 4
  %129 = load ptr, ptr %4, align 8
  %130 = load i32, ptr %11, align 4
  %131 = call zeroext i16 @tvb_get_ntohs(ptr noundef %129, i32 noundef %130)
  %132 = zext i16 %131 to i64
  %133 = shl i64 %132, 16
  %134 = getelementptr inbounds nuw %struct.nstime_t, ptr %18, i32 0, i32 0
  store i64 %133, ptr %134, align 8
  %135 = load ptr, ptr %9, align 8
  %136 = load i32, ptr @hf_uftp_fileinfo_ftstamp_hi, align 4
  %137 = load ptr, ptr %4, align 8
  %138 = load i32, ptr %11, align 4
  %139 = call ptr @proto_tree_add_item(ptr noundef %135, i32 noundef %136, ptr noundef %137, i32 noundef %138, i32 noundef 2, i32 noundef 0)
  %140 = load i32, ptr %11, align 4
  %141 = add i32 %140, 2
  store i32 %141, ptr %11, align 4
  %142 = load ptr, ptr %9, align 8
  %143 = load i32, ptr @hf_uftp_fileinfo_namelen, align 4
  %144 = load ptr, ptr %4, align 8
  %145 = load i32, ptr %11, align 4
  %146 = call ptr @proto_tree_add_item(ptr noundef %142, i32 noundef %143, ptr noundef %144, i32 noundef %145, i32 noundef 1, i32 noundef 0)
  %147 = load i32, ptr %11, align 4
  %148 = add i32 %147, 1
  store i32 %148, ptr %11, align 4
  %149 = load ptr, ptr %9, align 8
  %150 = load i32, ptr @hf_uftp_fileinfo_linklen, align 4
  %151 = load ptr, ptr %4, align 8
  %152 = load i32, ptr %11, align 4
  %153 = call ptr @proto_tree_add_item(ptr noundef %149, i32 noundef %150, ptr noundef %151, i32 noundef %152, i32 noundef 1, i32 noundef 0)
  %154 = load i32, ptr %11, align 4
  %155 = add i32 %154, 1
  store i32 %155, ptr %11, align 4
  %156 = load ptr, ptr %9, align 8
  %157 = load i32, ptr @hf_uftp_fileinfo_fsize, align 4
  %158 = load ptr, ptr %4, align 8
  %159 = load i32, ptr %11, align 4
  %160 = call ptr @proto_tree_add_item(ptr noundef %156, i32 noundef %157, ptr noundef %158, i32 noundef %159, i32 noundef 6, i32 noundef 0)
  %161 = load i32, ptr %11, align 4
  %162 = add i32 %161, 6
  store i32 %162, ptr %11, align 4
  %163 = load ptr, ptr %4, align 8
  %164 = load i32, ptr %11, align 4
  %165 = call i32 @tvb_get_ntohl(ptr noundef %163, i32 noundef %164)
  %166 = zext i32 %165 to i64
  %167 = getelementptr inbounds nuw %struct.nstime_t, ptr %18, i32 0, i32 0
  %168 = load i64, ptr %167, align 8
  %169 = or i64 %168, %166
  store i64 %169, ptr %167, align 8
  %170 = getelementptr inbounds nuw %struct.nstime_t, ptr %18, i32 0, i32 1
  store i32 0, ptr %170, align 8
  %171 = load ptr, ptr %9, align 8
  %172 = load i32, ptr @hf_uftp_fileinfo_ftstamp, align 4
  %173 = load ptr, ptr %4, align 8
  %174 = load i32, ptr %11, align 4
  %175 = call ptr @proto_tree_add_time(ptr noundef %171, i32 noundef %172, ptr noundef %173, i32 noundef %174, i32 noundef 4, ptr noundef %18)
  %176 = load i32, ptr %11, align 4
  %177 = add i32 %176, 4
  store i32 %177, ptr %11, align 4
  call void @llvm.lifetime.start.p0(i64 16, ptr %21) #6
  %178 = load ptr, ptr %4, align 8
  %179 = load i32, ptr %11, align 4
  %180 = call i64 @tvb_get_ntoh64(ptr noundef %178, i32 noundef %179)
  %181 = call { i64, i32 } @usec_to_nstime(i64 noundef %180)
  %182 = getelementptr inbounds nuw { i64, i32 }, ptr %21, i32 0, i32 0
  %183 = extractvalue { i64, i32 } %181, 0
  store i64 %183, ptr %182, align 8
  %184 = getelementptr inbounds nuw { i64, i32 }, ptr %21, i32 0, i32 1
  %185 = extractvalue { i64, i32 } %181, 1
  store i32 %185, ptr %184, align 8
  call void @llvm.memcpy.p0.p0.i64(ptr align 8 %19, ptr align 8 %21, i64 16, i1 false)
  call void @llvm.lifetime.end.p0(i64 16, ptr %21) #6
  %186 = load ptr, ptr %9, align 8
  %187 = load i32, ptr @hf_uftp_fileinfo_tstamp, align 4
  %188 = load ptr, ptr %4, align 8
  %189 = load i32, ptr %11, align 4
  %190 = call ptr @proto_tree_add_time(ptr noundef %186, i32 noundef %187, ptr noundef %188, i32 noundef %189, i32 noundef 8, ptr noundef %19)
  %191 = load i32, ptr %11, align 4
  %192 = add i32 %191, 8
  store i32 %192, ptr %11, align 4
  %193 = load ptr, ptr %9, align 8
  %194 = load i32, ptr @hf_uftp_fileinfo_name, align 4
  %195 = load ptr, ptr %4, align 8
  %196 = load i32, ptr %11, align 4
  %197 = load i16, ptr %16, align 2
  %198 = zext i16 %197 to i32
  %199 = call ptr @proto_tree_add_item(ptr noundef %193, i32 noundef %194, ptr noundef %195, i32 noundef %196, i32 noundef %198, i32 noundef 0)
  %200 = load i16, ptr %16, align 2
  %201 = zext i16 %200 to i32
  %202 = load i32, ptr %11, align 4
  %203 = add i32 %202, %201
  store i32 %203, ptr %11, align 4
  %204 = load i16, ptr %17, align 2
  %205 = zext i16 %204 to i32
  %206 = icmp sgt i32 %205, 0
  br i1 %206, label %207, label %215

207:                                              ; preds = %74
  %208 = load ptr, ptr %9, align 8
  %209 = load i32, ptr @hf_uftp_fileinfo_link, align 4
  %210 = load ptr, ptr %4, align 8
  %211 = load i32, ptr %11, align 4
  %212 = load i16, ptr %17, align 2
  %213 = zext i16 %212 to i32
  %214 = call ptr @proto_tree_add_item(ptr noundef %208, i32 noundef %209, ptr noundef %210, i32 noundef %211, i32 noundef %213, i32 noundef 0)
  br label %215

215:                                              ; preds = %207, %74
  %216 = load ptr, ptr %4, align 8
  %217 = call i32 @tvb_reported_length(ptr noundef %216)
  %218 = load i32, ptr %12, align 4
  %219 = sub i32 %217, %218
  %220 = udiv i32 %219, 4
  %221 = trunc i32 %220 to i16
  store i16 %221, ptr %14, align 2
  %222 = load i32, ptr %12, align 4
  store i32 %222, ptr %11, align 4
  %223 = load i16, ptr %14, align 2
  %224 = zext i16 %223 to i32
  %225 = icmp sgt i32 %224, 0
  br i1 %225, label %226, label %238

226:                                              ; preds = %215
  %227 = load ptr, ptr %9, align 8
  %228 = load i32, ptr @hf_uftp_destlist, align 4
  %229 = load ptr, ptr %4, align 8
  %230 = load i32, ptr %11, align 4
  %231 = load i16, ptr %14, align 2
  %232 = zext i16 %231 to i32
  %233 = mul i32 %232, 4
  %234 = call ptr @proto_tree_add_item(ptr noundef %227, i32 noundef %228, ptr noundef %229, i32 noundef %230, i32 noundef %233, i32 noundef 0)
  store ptr %234, ptr %8, align 8
  %235 = load ptr, ptr %8, align 8
  %236 = load i32, ptr @ett_uftp_destlist, align 4
  %237 = call ptr @proto_item_add_subtree(ptr noundef %235, i32 noundef %236)
  store ptr %237, ptr %10, align 8
  br label %238

238:                                              ; preds = %226, %215
  store i16 0, ptr %15, align 2
  br label %239

239:                                              ; preds = %253, %238
  %240 = load i16, ptr %15, align 2
  %241 = zext i16 %240 to i32
  %242 = load i16, ptr %14, align 2
  %243 = zext i16 %242 to i32
  %244 = icmp slt i32 %241, %243
  br i1 %244, label %245, label %256

245:                                              ; preds = %239
  %246 = load ptr, ptr %10, align 8
  %247 = load i32, ptr @hf_uftp_dest, align 4
  %248 = load ptr, ptr %4, align 8
  %249 = load i32, ptr %11, align 4
  %250 = call ptr @proto_tree_add_item(ptr noundef %246, i32 noundef %247, ptr noundef %248, i32 noundef %249, i32 noundef 4, i32 noundef 0)
  %251 = load i32, ptr %11, align 4
  %252 = add i32 %251, 4
  store i32 %252, ptr %11, align 4
  br label %253

253:                                              ; preds = %245
  %254 = load i16, ptr %15, align 2
  %255 = add i16 %254, 1
  store i16 %255, ptr %15, align 2
  br label %239, !llvm.loop !13

256:                                              ; preds = %239
  store i32 0, ptr %20, align 4
  br label %257

257:                                              ; preds = %256, %61, %25
  call void @llvm.lifetime.end.p0(i64 16, ptr %19) #6
  call void @llvm.lifetime.end.p0(i64 16, ptr %18) #6
  call void @llvm.lifetime.end.p0(i64 2, ptr %17) #6
  call void @llvm.lifetime.end.p0(i64 2, ptr %16) #6
  call void @llvm.lifetime.end.p0(i64 2, ptr %15) #6
  call void @llvm.lifetime.end.p0(i64 2, ptr %14) #6
  call void @llvm.lifetime.end.p0(i64 2, ptr %13) #6
  call void @llvm.lifetime.end.p0(i64 4, ptr %12) #6
  call void @llvm.lifetime.end.p0(i64 4, ptr %11) #6
  call void @llvm.lifetime.end.p0(i64 8, ptr %10) #6
  call void @llvm.lifetime.end.p0(i64 8, ptr %9) #6
  call void @llvm.lifetime.end.p0(i64 8, ptr %8) #6
  call void @llvm.lifetime.end.p0(i64 8, ptr %7) #6
  %258 = load i32, ptr %20, align 4
  switch i32 %258, label %260 [
    i32 0, label %259
    i32 1, label %259
  ]

259:                                              ; preds = %257, %257
  ret void

260:                                              ; preds = %257
  unreachable
}