; Function Attrs: null_pointer_is_valid sspstrong uwtable
define internal fastcc void @dissect_uftp_fileinfo(ptr noundef %0, ptr noundef %1, ptr noundef %2) unnamed_addr #0 {
  %4 = alloca %struct.nstime_t, align 8
  %5 = alloca %struct.nstime_t, align 8
  call void @llvm.lifetime.start.p0(i64 16, ptr nonnull %4) #5
  call void @llvm.lifetime.start.p0(i64 16, ptr nonnull %5) #5
  %6 = tail call i32 @tvb_reported_length(ptr noundef %0)
  %7 = icmp ult i32 %6, 28
  br i1 %7, label %8, label %11

8:                                                ; preds = %3
  %9 = tail call i32 @tvb_reported_length(ptr noundef %0)
  %10 = tail call ptr (ptr, ptr, ptr, ptr, i32, i32, ptr, ...) @proto_tree_add_expert_format(ptr noundef %2, ptr noundef %1, ptr noundef nonnull @ei_uftp_length_invalid, ptr noundef %0, i32 noundef 0, i32 noundef -1, ptr noundef nonnull @.str.416, i32 noundef %9)
  br label %.loopexit

11:                                               ; preds = %3
  %12 = tail call zeroext i8 @tvb_get_uint8(ptr noundef %0, i32 noundef 1)
  %13 = zext i8 %12 to i32
  %14 = shl nuw nsw i32 %13, 2
  %15 = tail call zeroext i8 @tvb_get_uint8(ptr noundef %0, i32 noundef 8)
  %16 = zext i8 %15 to i32
  %.pre = shl nuw nsw i32 %16, 2
  %17 = tail call zeroext i8 @tvb_get_uint8(ptr noundef %0, i32 noundef 9)
  %18 = zext i8 %17 to i16
  %19 = shl nuw nsw i16 %18, 2
  %20 = tail call i32 @tvb_reported_length(ptr noundef %0)
  %21 = icmp slt i32 %20, %14
  br i1 %21, label %._crit_edge, label %22

._crit_edge:                                      ; preds = %11
  %.pre118 = zext nneg i16 %19 to i32
  br label %27

22:                                               ; preds = %11
  %23 = add nuw nsw i32 %.pre, 28
  %24 = zext nneg i16 %19 to i32
  %25 = add nuw nsw i32 %23, %24
  %26 = icmp samesign ult i32 %14, %25
  br i1 %26, label %27, label %30

27:                                               ; preds = %._crit_edge, %22
  %.pre-phi119 = phi i32 [ %.pre118, %._crit_edge ], [ %24, %22 ]
  %28 = tail call i32 @tvb_reported_length(ptr noundef %0)
  %29 = tail call ptr (ptr, ptr, ptr, ptr, i32, i32, ptr, ...) @proto_tree_add_expert_format(ptr noundef %2, ptr noundef %1, ptr noundef nonnull @ei_uftp_length_invalid, ptr noundef %0, i32 noundef 0, i32 noundef -1, ptr noundef nonnull @.str.424, i32 noundef %28, i32 noundef %14, i32 noundef %.pre, i32 noundef %.pre-phi119)
  br label %.loopexit

30:                                               ; preds = %22
  %31 = tail call zeroext i16 @tvb_get_ntohs(ptr noundef %0, i32 noundef 2)
  %32 = getelementptr inbounds nuw i8, ptr %1, i64 8
  %33 = load ptr, ptr %32, align 8
  %34 = zext i16 %31 to i32
  tail call void (ptr, i32, ptr, ...) @col_append_fstr(ptr noundef %33, i32 noundef 25, ptr noundef nonnull @.str.425, i32 noundef %34)
  %35 = load i32, ptr @hf_uftp_fileinfo, align 4
  %36 = tail call ptr @proto_tree_add_item(ptr noundef %2, i32 noundef %35, ptr noundef %0, i32 noundef 0, i32 noundef -1, i32 noundef 0)
  %37 = load i32, ptr @ett_uftp_fileinfo, align 4
  %38 = tail call ptr @proto_item_add_subtree(ptr noundef %36, i32 noundef %37)
  %39 = load i32, ptr @hf_uftp_fileinfo_func, align 4
  %40 = tail call ptr @proto_tree_add_item(ptr noundef %38, i32 noundef %39, ptr noundef %0, i32 noundef 0, i32 noundef 1, i32 noundef 0)
  %41 = load i32, ptr @hf_uftp_fileinfo_hlen, align 4
  %42 = tail call ptr (ptr, i32, ptr, i32, i32, i32, ptr, ...) @proto_tree_add_uint_format_value(ptr noundef %38, i32 noundef %41, ptr noundef %0, i32 noundef 1, i32 noundef 1, i32 noundef %14, ptr noundef nonnull @.str.418, i32 noundef %14, i32 noundef %13)
  %43 = load i32, ptr @hf_uftp_fileinfo_file_id, align 4
  %44 = tail call ptr @proto_tree_add_item(ptr noundef %38, i32 noundef %43, ptr noundef %0, i32 noundef 2, i32 noundef 2, i32 noundef 0)
  %45 = load i32, ptr @hf_uftp_fileinfo_ftype, align 4
  %46 = tail call ptr @proto_tree_add_item(ptr noundef %38, i32 noundef %45, ptr noundef %0, i32 noundef 4, i32 noundef 1, i32 noundef 0)
  %47 = load i32, ptr @hf_uftp_fileinfo_reserved, align 4
  %48 = tail call ptr @proto_tree_add_item(ptr noundef %38, i32 noundef %47, ptr noundef %0, i32 noundef 5, i32 noundef 1, i32 noundef 0)
  %49 = tail call zeroext i16 @tvb_get_ntohs(ptr noundef %0, i32 noundef 6)
  %50 = zext i16 %49 to i64
  %51 = shl nuw nsw i64 %50, 16
  %52 = load i32, ptr @hf_uftp_fileinfo_ftstamp_hi, align 4
  %53 = tail call ptr @proto_tree_add_item(ptr noundef %38, i32 noundef %52, ptr noundef %0, i32 noundef 6, i32 noundef 2, i32 noundef 0)
  %54 = load i32, ptr @hf_uftp_fileinfo_namelen, align 4
  %55 = tail call ptr @proto_tree_add_item(ptr noundef %38, i32 noundef %54, ptr noundef %0, i32 noundef 8, i32 noundef 1, i32 noundef 0)
  %56 = load i32, ptr @hf_uftp_fileinfo_linklen, align 4
  %57 = tail call ptr @proto_tree_add_item(ptr noundef %38, i32 noundef %56, ptr noundef %0, i32 noundef 9, i32 noundef 1, i32 noundef 0)
  %58 = load i32, ptr @hf_uftp_fileinfo_fsize, align 4
  %59 = tail call ptr @proto_tree_add_item(ptr noundef %38, i32 noundef %58, ptr noundef %0, i32 noundef 10, i32 noundef 6, i32 noundef 0)
  %60 = tail call i32 @tvb_get_ntohl(ptr noundef %0, i32 noundef 16)
  %61 = zext i32 %60 to i64
  %62 = or i64 %51, %61
  store i64 %62, ptr %4, align 8
  %63 = getelementptr inbounds nuw i8, ptr %4, i64 8
  store i32 0, ptr %63, align 8
  %64 = load i32, ptr @hf_uftp_fileinfo_ftstamp, align 4
  %65 = call ptr @proto_tree_add_time(ptr noundef %38, i32 noundef %64, ptr noundef %0, i32 noundef 16, i32 noundef 4, ptr noundef nonnull %4)
  %66 = call i64 @tvb_get_ntoh64(ptr noundef %0, i32 noundef 20)
  %67 = udiv i64 %66, 1000000
  %68 = urem i64 %66, 1000000
  %69 = trunc nuw nsw i64 %68 to i32
  %70 = mul nuw nsw i32 %69, 1000
  store i64 %67, ptr %5, align 8
  %.sroa.4.0..sroa_idx = getelementptr inbounds nuw i8, ptr %5, i64 8
  store i32 %70, ptr %.sroa.4.0..sroa_idx, align 8
  %71 = load i32, ptr @hf_uftp_fileinfo_tstamp, align 4
  %72 = call ptr @proto_tree_add_time(ptr noundef %38, i32 noundef %71, ptr noundef %0, i32 noundef 20, i32 noundef 8, ptr noundef nonnull %5)
  %73 = load i32, ptr @hf_uftp_fileinfo_name, align 4
  %74 = call ptr @proto_tree_add_item(ptr noundef %38, i32 noundef %73, ptr noundef %0, i32 noundef 28, i32 noundef %.pre, i32 noundef 0)
  %.not = icmp eq i8 %17, 0
  br i1 %.not, label %78, label %75

75:                                               ; preds = %30
  %76 = load i32, ptr @hf_uftp_fileinfo_link, align 4
  %77 = call ptr @proto_tree_add_item(ptr noundef %38, i32 noundef %76, ptr noundef %0, i32 noundef %23, i32 noundef %24, i32 noundef 0)
  br label %78

78:                                               ; preds = %75, %30
  %79 = call i32 @tvb_reported_length(ptr noundef %0)
  %80 = sub i32 %79, %14
  %81 = lshr i32 %80, 2
  %82 = and i32 %81, 65535
  %.not113 = icmp eq i32 %82, 0
  br i1 %.not113, label %.loopexit, label %.lr.ph.preheader

.lr.ph.preheader:                                 ; preds = %78
  %83 = load i32, ptr @hf_uftp_destlist, align 4
  %84 = shl nuw nsw i32 %82, 2
  %85 = call ptr @proto_tree_add_item(ptr noundef %38, i32 noundef %83, ptr noundef %0, i32 noundef %14, i32 noundef %84, i32 noundef 0)
  %86 = load i32, ptr @ett_uftp_destlist, align 4
  %87 = call ptr @proto_item_add_subtree(ptr noundef %85, i32 noundef %86)
  br label %.lr.ph

.lr.ph:                                           ; preds = %.lr.ph.preheader, %.lr.ph
  %indvars.iv = phi i32 [ 0, %.lr.ph.preheader ], [ %indvars.iv.next, %.lr.ph ]
  %.0108115 = phi i32 [ %14, %.lr.ph.preheader ], [ %90, %.lr.ph ]
  %88 = load i32, ptr @hf_uftp_dest, align 4
  %89 = call ptr @proto_tree_add_item(ptr noundef %87, i32 noundef %88, ptr noundef %0, i32 noundef %.0108115, i32 noundef 4, i32 noundef 0)
  %90 = add nuw nsw i32 %.0108115, 4
  %indvars.iv.next = add nuw nsw i32 %indvars.iv, 1
  %exitcond.not = icmp eq i32 %indvars.iv.next, %82
  br i1 %exitcond.not, label %.loopexit, label %.lr.ph, !llvm.loop !12

.loopexit:                                        ; preds = %.lr.ph, %78, %27, %8
  call void @llvm.lifetime.end.p0(i64 16, ptr nonnull %5) #5
  call void @llvm.lifetime.end.p0(i64 16, ptr nonnull %4) #5
  ret void
}